target datalayout = "e-m:e-p270:32:32-p271:32:32-p272:64:64-i64:64-i128:128-f80:128-n8:16:32:64-S128"
target triple = "x86_64-pc-linux-gnu"

%struct.EncoderSession = type { i32, i32, i32, i32, ptr, ptr, ptr, i32, i32, i32, i64, i64, i64, i64, i32, i64, [16 x i8], %struct.SampleInfo, i32, %union.anon.4, ptr, ptr, ptr, double, double }
%struct.SampleInfo = type { i32, i32, i32, i32, i32, i32, i32, i32 }
%union.anon.4 = type { %struct.anon.6 }
%struct.anon.6 = type { ptr, %struct.FLACDecoderData }
%struct.FLACDecoderData = type { i64, ptr, i32, i64, [1024 x ptr], i64, i32 }

@stderr = external global ptr, align 8
@.str.89 = private unnamed_addr constant [2 x i8] c"\0A\00", align 1

; Function Attrs: nounwind sspstrong uwtable
define internal i32 @EncoderSession_finish_error(ptr noundef %0) #0 {
  %2 = alloca ptr, align 8
  store ptr %0, ptr %2, align 8, !tbaa !48
  %3 = load ptr, ptr %2, align 8, !tbaa !48
  %4 = getelementptr inbounds nuw %struct.EncoderSession, ptr %3, i32 0, i32 10
  %5 = load i64, ptr %4, align 8, !tbaa !37
  %6 = icmp ugt i64 %5, 0
  br i1 %6, label %7, label %9

7:                                                ; preds = %1
  %8 = load ptr, ptr @stderr, align 8, !tbaa !4
  call void (ptr, i32, ptr, ...) @flac__utils_printf(ptr noundef %8, i32 noundef 2, ptr noundef @.str.89)
  br label %9

9:                                                ; preds = %7, %1
  %10 = load ptr, ptr %2, align 8, !tbaa !48
  %11 = getelementptr inbounds nuw %struct.EncoderSession, ptr %10, i32 0, i32 20
  %12 = load ptr, ptr %11, align 8, !tbaa !66
  %13 = call i32 @FLAC__stream_encoder_get_state(ptr noundef %12)
  %14 = icmp eq i32 %13, 4
  br i1 %14, label %15, label %18

15:                                               ; preds = %9
  %16 = load ptr, ptr %2, align 8, !tbaa !48
  call void @print_verify_error(ptr noundef %16)
  %17 = load ptr, ptr %2, align 8, !tbaa !48
  call void @EncoderSession_destroy(ptr noundef %17)
  br label %32

18:                                               ; preds = %9
  %19 = load ptr, ptr %2, align 8, !tbaa !48
  %20 = getelementptr inbounds nuw %struct.EncoderSession, ptr %19, i32 0, i32 3
  %21 = load i32, ptr %20, align 4, !tbaa !58
  %22 = icmp ne i32 %21, 0
  br i1 %22, label %23, label %29

23:                                               ; preds = %18
  %24 = load ptr, ptr %2, align 8, !tbaa !48
  call void @EncoderSession_destroy(ptr noundef %24)
  %25 = load ptr, ptr %2, align 8, !tbaa !48
  %26 = getelementptr inbounds nuw %struct.EncoderSession, ptr %25, i32 0, i32 6
  %27 = load ptr, ptr %26, align 8, !tbaa !60
  %28 = call i32 @unlink(ptr noundef %27) #14
  br label %31

29:                                               ; preds = %18
  %30 = load ptr, ptr %2, align 8, !tbaa !48
  call void @EncoderSession_destroy(ptr noundef %30)
  br label %31

31:                                               ; preds = %29, %23
  br label %32

32:                                               ; preds = %31, %15
  ret i32 1
}