; Function Attrs: nounwind sspstrong uwtable
define internal fastcc void @EncoderSession_finish_error(ptr noundef nonnull captures(none) %0) unnamed_addr #0 {
  %2 = getelementptr inbounds nuw i8, ptr %0, i64 56
  %3 = load i64, ptr %2, align 8, !tbaa !43
  %.not = icmp eq i64 %3, 0
  br i1 %.not, label %6, label %4

4:                                                ; preds = %1
  %5 = load ptr, ptr @stderr, align 8, !tbaa !33
  tail call void (ptr, i32, ptr, ...) @flac__utils_printf(ptr noundef %5, i32 noundef 2, ptr noundef nonnull @.str.89) #20
  br label %6

6:                                                ; preds = %4, %1
  %7 = getelementptr inbounds nuw i8, ptr %0, i64 8408
  %8 = load ptr, ptr %7, align 8, !tbaa !34
  %9 = tail call i32 @FLAC__stream_encoder_get_state(ptr noundef %8) #20
  %10 = icmp eq i32 %9, 4
  br i1 %10, label %11, label %12

11:                                               ; preds = %6
  tail call fastcc void @print_verify_error(ptr noundef %0)
  tail call fastcc void @EncoderSession_destroy(ptr noundef %0)
  br label %19

12:                                               ; preds = %6
  %13 = getelementptr inbounds nuw i8, ptr %0, i64 12
  %14 = load i32, ptr %13, align 4, !tbaa !24
  %.not8 = icmp eq i32 %14, 0
  tail call fastcc void @EncoderSession_destroy(ptr noundef %0)
  br i1 %.not8, label %19, label %15

15:                                               ; preds = %12
  %16 = getelementptr inbounds nuw i8, ptr %0, i64 32
  %17 = load ptr, ptr %16, align 8, !tbaa !27
  %18 = tail call i32 @unlink(ptr noundef %17) #20
  br label %19

19:                                               ; preds = %12, %15, %11
  ret void
}